; Function Attrs: nounwind uwtable
define internal fastcc void @git_config_push_split_parameter(ptr noundef %0, ptr noundef %1) unnamed_addr #0 {
  %3 = alloca %struct.strbuf, align 8
  call void @llvm.lifetime.start.p0(i64 24, ptr nonnull %3) #30
  call void @llvm.memcpy.p0.p0.i64(ptr noundef nonnull align 8 dereferenceable(24) %3, ptr noundef nonnull align 8 dereferenceable(24) @__const.repo_config_copy_or_rename_section_in_file.copystr, i64 24, i1 false)
  %4 = tail call ptr @getenv(ptr noundef nonnull @.str.16) #30
  %.not = icmp eq ptr %4, null
  br i1 %.not, label %20, label %5

5:                                                ; preds = %2
  %6 = load i8, ptr %4, align 1, !tbaa !4
  %.not7 = icmp eq i8 %6, 0
  br i1 %.not7, label %20, label %7

7:                                                ; preds = %5
  %8 = tail call i64 @strlen(ptr noundef nonnull dereferenceable(1) %4) #29
  call void @strbuf_add(ptr noundef nonnull %3, ptr noundef nonnull %4, i64 noundef %8) #30
  %9 = load i64, ptr %3, align 8, !tbaa !7
  %.not.i.i = icmp eq i64 %9, 0
  br i1 %.not.i.i, label %strbuf_avail.exit.thread.i, label %strbuf_avail.exit.i

strbuf_avail.exit.i:                              ; preds = %7
  %10 = getelementptr inbounds nuw i8, ptr %3, i64 8
  %11 = load i64, ptr %10, align 8, !tbaa !12
  %.neg.i = add i64 %11, 1
  %.not.i = icmp eq i64 %9, %.neg.i
  br i1 %.not.i, label %strbuf_avail.exit.thread.i, label %strbuf_addch.exit

strbuf_avail.exit.thread.i:                       ; preds = %strbuf_avail.exit.i, %7
  call void @strbuf_grow(ptr noundef nonnull %3, i64 noundef 1) #30
  %.phi.trans.insert.i = getelementptr inbounds nuw i8, ptr %3, i64 8
  %.pre.i = load i64, ptr %.phi.trans.insert.i, align 8, !tbaa !12
  %.pre7.i = add i64 %.pre.i, 1
  br label %strbuf_addch.exit

strbuf_addch.exit:                                ; preds = %strbuf_avail.exit.i, %strbuf_avail.exit.thread.i
  %.pre-phi.i = phi i64 [ %.pre7.i, %strbuf_avail.exit.thread.i ], [ %.neg.i, %strbuf_avail.exit.i ]
  %12 = phi i64 [ %.pre.i, %strbuf_avail.exit.thread.i ], [ %11, %strbuf_avail.exit.i ]
  %13 = getelementptr inbounds nuw i8, ptr %3, i64 16
  %14 = load ptr, ptr %13, align 8, !tbaa !13
  %15 = getelementptr inbounds nuw i8, ptr %3, i64 8
  store i64 %.pre-phi.i, ptr %15, align 8, !tbaa !12
  %16 = getelementptr inbounds nuw i8, ptr %14, i64 %12
  store i8 32, ptr %16, align 1, !tbaa !4
  %17 = load ptr, ptr %13, align 8, !tbaa !13
  %18 = load i64, ptr %15, align 8, !tbaa !12
  %19 = getelementptr inbounds nuw i8, ptr %17, i64 %18
  store i8 0, ptr %19, align 1, !tbaa !4
  br label %20

20:                                               ; preds = %strbuf_addch.exit, %5, %2
  call void @sq_quote_buf(ptr noundef nonnull %3, ptr noundef %0) #30
  %21 = load i64, ptr %3, align 8, !tbaa !7
  %.not.i.i9 = icmp eq i64 %21, 0
  br i1 %.not.i.i9, label %strbuf_avail.exit.thread.i14, label %strbuf_avail.exit.i10

strbuf_avail.exit.i10:                            ; preds = %20
  %22 = getelementptr inbounds nuw i8, ptr %3, i64 8
  %23 = load i64, ptr %22, align 8, !tbaa !12
  %.neg.i11 = add i64 %23, 1
  %.not.i12 = icmp eq i64 %21, %.neg.i11
  br i1 %.not.i12, label %strbuf_avail.exit.thread.i14, label %strbuf_addch.exit18

strbuf_avail.exit.thread.i14:                     ; preds = %strbuf_avail.exit.i10, %20
  call void @strbuf_grow(ptr noundef nonnull %3, i64 noundef 1) #30
  %.phi.trans.insert.i15 = getelementptr inbounds nuw i8, ptr %3, i64 8
  %.pre.i16 = load i64, ptr %.phi.trans.insert.i15, align 8, !tbaa !12
  %.pre7.i17 = add i64 %.pre.i16, 1
  br label %strbuf_addch.exit18

strbuf_addch.exit18:                              ; preds = %strbuf_avail.exit.i10, %strbuf_avail.exit.thread.i14
  %.pre-phi.i13 = phi i64 [ %.pre7.i17, %strbuf_avail.exit.thread.i14 ], [ %.neg.i11, %strbuf_avail.exit.i10 ]
  %24 = phi i64 [ %.pre.i16, %strbuf_avail.exit.thread.i14 ], [ %23, %strbuf_avail.exit.i10 ]
  %25 = getelementptr inbounds nuw i8, ptr %3, i64 16
  %26 = load ptr, ptr %25, align 8, !tbaa !13
  %27 = getelementptr inbounds nuw i8, ptr %3, i64 8
  store i64 %.pre-phi.i13, ptr %27, align 8, !tbaa !12
  %28 = getelementptr inbounds nuw i8, ptr %26, i64 %24
  store i8 61, ptr %28, align 1, !tbaa !4
  %29 = load ptr, ptr %25, align 8, !tbaa !13
  %30 = load i64, ptr %27, align 8, !tbaa !12
  %31 = getelementptr inbounds nuw i8, ptr %29, i64 %30
  store i8 0, ptr %31, align 1, !tbaa !4
  %.not8 = icmp eq ptr %1, null
  br i1 %.not8, label %33, label %32

32:                                               ; preds = %strbuf_addch.exit18
  call void @sq_quote_buf(ptr noundef nonnull %3, ptr noundef nonnull %1) #30
  br label %33

33:                                               ; preds = %32, %strbuf_addch.exit18
  %34 = load ptr, ptr %25, align 8, !tbaa !13
  %35 = call i32 @setenv(ptr noundef nonnull @.str.16, ptr noundef %34, i32 noundef 1) #30
  call void @strbuf_release(ptr noundef nonnull %3) #30
  call void @llvm.lifetime.end.p0(i64 24, ptr nonnull %3) #30
  ret void
}